target datalayout = "e-m:e-p270:32:32-p271:32:32-p272:64:64-i64:64-i128:128-f80:128-n8:16:32:64-S128"
target triple = "x86_64-pc-linux-gnu"

%"class.icu_77::UObject" = type { ptr }
%"class.icu_77::RegexStaticSets" = type { [8 x i8], [13 x %"class.icu_77::UnicodeSet"], [13 x %"struct.icu_77::Regex8BitSet"], [3 x %"class.icu_77::UnicodeSet"], %"class.icu_77::UnicodeSet", ptr, ptr }
%"struct.icu_77::Regex8BitSet" = type { [32 x i8] }
%"class.icu_77::UnicodeSet" = type <{ %"class.icu_77::UnicodeFilter", ptr, i32, i32, i8, [7 x i8], ptr, ptr, i32, [4 x i8], ptr, i32, [4 x i8], ptr, ptr, [25 x i32], [4 x i8] }>
%"class.icu_77::UnicodeFilter" = type { %"class.icu_77::UnicodeFunctor", %"class.icu_77::UnicodeMatcher" }
%"class.icu_77::UnicodeFunctor" = type { %"class.icu_77::UObject" }
%"class.icu_77::UnicodeMatcher" = type { ptr }

; Function Attrs: mustprogress nounwind uwtable
define void @_ZN6icu_7715RegexStaticSetsD2Ev(ptr noundef nonnull align 8 dereferenceable(3840) %0) unnamed_addr #6 align 2 personality ptr @__gxx_personality_v0 {
  %2 = alloca ptr, align 8
  store ptr %0, ptr %2, align 8, !tbaa !3
  %3 = load ptr, ptr %2, align 8
  %4 = getelementptr inbounds nuw %"class.icu_77::RegexStaticSets", ptr %3, i32 0, i32 5
  store ptr null, ptr %4, align 8, !tbaa !9
  %5 = getelementptr inbounds nuw %"class.icu_77::RegexStaticSets", ptr %3, i32 0, i32 6
  %6 = load ptr, ptr %5, align 8, !tbaa !24
  %7 = invoke ptr @utext_close_77(ptr noundef %6)
          to label %8 unwind label %26

8:                                                ; preds = %1
  %9 = getelementptr inbounds nuw %"class.icu_77::RegexStaticSets", ptr %3, i32 0, i32 4
  call void @_ZN6icu_7710UnicodeSetD1Ev(ptr noundef nonnull align 8 dereferenceable(200) %9) #11
  %10 = getelementptr inbounds nuw %"class.icu_77::RegexStaticSets", ptr %3, i32 0, i32 3
  %11 = getelementptr inbounds [3 x %"class.icu_77::UnicodeSet"], ptr %10, i32 0, i32 0
  %12 = getelementptr inbounds %"class.icu_77::UnicodeSet", ptr %11, i64 3
  br label %13

13:                                               ; preds = %13, %8
  %14 = phi ptr [ %12, %8 ], [ %15, %13 ]
  %15 = getelementptr inbounds %"class.icu_77::UnicodeSet", ptr %14, i64 -1
  call void @_ZN6icu_7710UnicodeSetD1Ev(ptr noundef nonnull align 8 dereferenceable(200) %15) #11
  %16 = icmp eq ptr %15, %11
  br i1 %16, label %17, label %13

17:                                               ; preds = %13
  %18 = getelementptr inbounds nuw %"class.icu_77::RegexStaticSets", ptr %3, i32 0, i32 1
  %19 = getelementptr inbounds [13 x %"class.icu_77::UnicodeSet"], ptr %18, i32 0, i32 0
  %20 = getelementptr inbounds %"class.icu_77::UnicodeSet", ptr %19, i64 13
  br label %21

21:                                               ; preds = %21, %17
  %22 = phi ptr [ %20, %17 ], [ %23, %21 ]
  %23 = getelementptr inbounds %"class.icu_77::UnicodeSet", ptr %22, i64 -1
  call void @_ZN6icu_7710UnicodeSetD1Ev(ptr noundef nonnull align 8 dereferenceable(200) %23) #11
  %24 = icmp eq ptr %23, %19
  br i1 %24, label %25, label %21

25:                                               ; preds = %21
  ret void

26:                                               ; preds = %1
  %27 = landingpad { ptr, i32 }
          catch ptr null
  %28 = extractvalue { ptr, i32 } %27, 0
  call void @__clang_call_terminate(ptr %28) #12
  unreachable
}