; Function Attrs: mustprogress nounwind uwtable
define void @_ZN6icu_7715RegexStaticSetsD2Ev(ptr noundef nonnull align 8 dereferenceable(3840) initializes((3824, 3832)) %0) unnamed_addr #4 align 2 personality ptr @__gxx_personality_v0 {
  %2 = getelementptr inbounds nuw i8, ptr %0, i64 3824
  store ptr null, ptr %2, align 8, !tbaa !16
  %3 = getelementptr inbounds nuw i8, ptr %0, i64 3832
  %4 = load ptr, ptr %3, align 8, !tbaa !30
  %5 = invoke ptr @utext_close_77(ptr noundef %4)
          to label %6 unwind label %12

6:                                                ; preds = %1
  %7 = getelementptr inbounds nuw i8, ptr %0, i64 3624
  tail call void @_ZN6icu_7710UnicodeSetD1Ev(ptr noundef nonnull align 8 dereferenceable(200) %7) #8
  br label %8

8:                                                ; preds = %8, %6
  %.idx = phi i64 [ 3624, %6 ], [ %.add, %8 ]
  %.add = add nsw i64 %.idx, -200
  %.ptr1 = getelementptr inbounds i8, ptr %0, i64 %.add
  tail call void @_ZN6icu_7710UnicodeSetD1Ev(ptr noundef nonnull align 8 dereferenceable(200) %.ptr1) #8
  %9 = icmp eq i64 %.add, 3024
  br i1 %9, label %.preheader, label %8

.preheader:                                       ; preds = %8, %.preheader
  %.idx3 = phi i64 [ %.add4, %.preheader ], [ 2608, %8 ]
  %.add4 = add nsw i64 %.idx3, -200
  %.ptr5 = getelementptr inbounds i8, ptr %0, i64 %.add4
  tail call void @_ZN6icu_7710UnicodeSetD1Ev(ptr noundef nonnull align 8 dereferenceable(200) %.ptr5) #8
  %10 = icmp eq i64 %.add4, 8
  br i1 %10, label %11, label %.preheader

11:                                               ; preds = %.preheader
  ret void

12:                                               ; preds = %1
  %13 = landingpad { ptr, i32 }
          catch ptr null
  %14 = extractvalue { ptr, i32 } %13, 0
  tail call void @__clang_call_terminate(ptr %14) #9
  unreachable
}